target datalayout = "e-m:e-p270:32:32-p271:32:32-p272:64:64-i64:64-i128:128-f80:128-n8:16:32:64-S128"
target triple = "x86_64-pc-linux-gnu"

@bio_err = external global ptr, align 8
@.str.95 = private unnamed_addr constant [23 x i8] c"../openssl/apps/dgst.c\00", align 1
@.str.96 = private unnamed_addr constant [18 x i8] c"Read error in %s\0A\00", align 1
@.str.97 = private unnamed_addr constant [45 x i8] c"Error getting maximum length of signed data\0A\00", align 1
@.str.98 = private unnamed_addr constant [17 x i8] c"Signature buffer\00", align 1
@.str.99 = private unnamed_addr constant [20 x i8] c"Error signing data\0A\00", align 1
@.str.100 = private unnamed_addr constant [14 x i8] c"Digest buffer\00", align 1
@.str.101 = private unnamed_addr constant [22 x i8] c"Error Digesting Data\0A\00", align 1
@.str.106 = private unnamed_addr constant [13 x i8] c"Verified OK\0A\00", align 1
@.str.107 = private unnamed_addr constant [22 x i8] c"Verification failure\0A\00", align 1
@.str.108 = private unnamed_addr constant [22 x i8] c"Error verifying data\0A\00", align 1

; Function Attrs: nounwind uwtable
define internal void @print_verify_result(ptr noundef %0, i32 noundef %1) #0 {
  %3 = alloca ptr, align 8
  %4 = alloca i32, align 4
  store ptr %0, ptr %3, align 8, !tbaa !11
  store i32 %1, ptr %4, align 4, !tbaa !4
  %5 = load i32, ptr %4, align 4, !tbaa !4
  %6 = icmp sgt i32 %5, 0
  br i1 %6, label %7, label %10

7:                                                ; preds = %2
  %8 = load ptr, ptr %3, align 8, !tbaa !11
  %9 = call i32 (ptr, ptr, ...) @BIO_printf(ptr noundef %8, ptr noundef @.str.106)
  br label %20

10:                                               ; preds = %2
  %11 = load i32, ptr %4, align 4, !tbaa !4
  %12 = icmp eq i32 %11, 0
  br i1 %12, label %13, label %16

13:                                               ; preds = %10
  %14 = load ptr, ptr %3, align 8, !tbaa !11
  %15 = call i32 (ptr, ptr, ...) @BIO_printf(ptr noundef %14, ptr noundef @.str.107)
  br label %19

16:                                               ; preds = %10
  %17 = load ptr, ptr @bio_err, align 8, !tbaa !11
  %18 = call i32 (ptr, ptr, ...) @BIO_printf(ptr noundef %17, ptr noundef @.str.108)
  br label %19

19:                                               ; preds = %16, %13
  br label %20

20:                                               ; preds = %19, %7
  ret void
}

; Function Attrs: nounwind uwtable
define dso_local i32 @do_fp(ptr noundef %0, ptr noundef %1, ptr noundef %2, i32 noundef %3, i32 noundef %4, i32 noundef %5, ptr noundef %6, ptr noundef %7, i32 noundef %8, ptr noundef %9, ptr noundef %10, ptr noundef %11) #0 {
  %13 = alloca i32, align 4
  %14 = alloca ptr, align 8
  %15 = alloca ptr, align 8
  %16 = alloca ptr, align 8
  %17 = alloca i32, align 4
  %18 = alloca i32, align 4
  %19 = alloca i32, align 4
  %20 = alloca ptr, align 8
  %21 = alloca ptr, align 8
  %22 = alloca i32, align 4
  %23 = alloca ptr, align 8
  %24 = alloca ptr, align 8
  %25 = alloca ptr, align 8
  %26 = alloca i64, align 8
  %27 = alloca i32, align 4
  %28 = alloca i32, align 4
  %29 = alloca ptr, align 8
  %30 = alloca ptr, align 8
  %31 = alloca i32, align 4
  %32 = alloca ptr, align 8
  %33 = alloca i64, align 8
  %34 = alloca ptr, align 8
  store ptr %0, ptr %14, align 8, !tbaa !11
  store ptr %1, ptr %15, align 8, !tbaa !19
  store ptr %2, ptr %16, align 8, !tbaa !11
  store i32 %3, ptr %17, align 4, !tbaa !4
  store i32 %4, ptr %18, align 4, !tbaa !4
  store i32 %5, ptr %19, align 4, !tbaa !4
  store ptr %6, ptr %20, align 8, !tbaa !15
  store ptr %7, ptr %21, align 8, !tbaa !19
  store i32 %8, ptr %22, align 4, !tbaa !4
  store ptr %9, ptr %23, align 8, !tbaa !19
  store ptr %10, ptr %24, align 8, !tbaa !19
  store ptr %11, ptr %25, align 8, !tbaa !19
  call void @llvm.lifetime.start.p0(i64 8, ptr %26) #8
  store i64 8192, ptr %26, align 8, !tbaa !49
  call void @llvm.lifetime.start.p0(i64 4, ptr %27) #8
  call void @llvm.lifetime.start.p0(i64 4, ptr %28) #8
  store i32 1, ptr %28, align 4, !tbaa !4
  call void @llvm.lifetime.start.p0(i64 8, ptr %29) #8
  store ptr null, ptr %29, align 8, !tbaa !19
  br label %35

35:                                               ; preds = %62, %12
  %36 = load ptr, ptr %16, align 8, !tbaa !11
  %37 = call i64 @BIO_ctrl(ptr noundef %36, i32 noundef 10, i64 noundef 0, ptr noundef null)
  %38 = trunc i64 %37 to i32
  %39 = icmp ne i32 %38, 0
  br i1 %39, label %46, label %40

40:                                               ; preds = %35
  %41 = load ptr, ptr %16, align 8, !tbaa !11
  %42 = call i64 @BIO_ctrl(ptr noundef %41, i32 noundef 2, i64 noundef 0, ptr noundef null)
  %43 = trunc i64 %42 to i32
  %44 = icmp ne i32 %43, 0
  %45 = xor i1 %44, true
  br label %46

46:                                               ; preds = %40, %35
  %47 = phi i1 [ true, %35 ], [ %45, %40 ]
  br i1 %47, label %48, label %63

48:                                               ; preds = %46
  %49 = load ptr, ptr %16, align 8, !tbaa !11
  %50 = load ptr, ptr %15, align 8, !tbaa !19
  %51 = call i32 @BIO_read(ptr noundef %49, ptr noundef %50, i32 noundef 8192)
  store i32 %51, ptr %27, align 4, !tbaa !4
  %52 = load i32, ptr %27, align 4, !tbaa !4
  %53 = icmp slt i32 %52, 0
  br i1 %53, label %54, label %58

54:                                               ; preds = %48
  %55 = load ptr, ptr @bio_err, align 8, !tbaa !11
  %56 = load ptr, ptr %25, align 8, !tbaa !19
  %57 = call i32 (ptr, ptr, ...) @BIO_printf(ptr noundef %55, ptr noundef @.str.96, ptr noundef %56)
  br label %160

58:                                               ; preds = %48
  %59 = load i32, ptr %27, align 4, !tbaa !4
  %60 = icmp eq i32 %59, 0
  br i1 %60, label %61, label %62

61:                                               ; preds = %58
  br label %63

62:                                               ; preds = %58
  br label %35, !llvm.loop !51

63:                                               ; preds = %61, %46
  %64 = load ptr, ptr %21, align 8, !tbaa !19
  %65 = icmp ne ptr %64, null
  br i1 %65, label %66, label %81

66:                                               ; preds = %63
  call void @llvm.lifetime.start.p0(i64 8, ptr %30) #8
  %67 = load ptr, ptr %16, align 8, !tbaa !11
  %68 = call i64 @BIO_ctrl(ptr noundef %67, i32 noundef 120, i64 noundef 0, ptr noundef %30)
  %69 = load ptr, ptr %30, align 8, !tbaa !23
  %70 = load ptr, ptr %21, align 8, !tbaa !19
  %71 = load i32, ptr %22, align 4, !tbaa !4
  %72 = zext i32 %71 to i64
  %73 = call i32 @EVP_DigestVerifyFinal(ptr noundef %69, ptr noundef %70, i64 noundef %72)
  store i32 %73, ptr %27, align 4, !tbaa !4
  %74 = load ptr, ptr %14, align 8, !tbaa !11
  %75 = load i32, ptr %27, align 4, !tbaa !4
  call void @print_verify_result(ptr noundef %74, i32 noundef %75)
  %76 = load i32, ptr %27, align 4, !tbaa !4
  %77 = icmp sgt i32 %76, 0
  br i1 %77, label %78, label %79

78:                                               ; preds = %66
  store i32 0, ptr %28, align 4, !tbaa !4
  br label %79

79:                                               ; preds = %78, %66
  store i32 4, ptr %31, align 4
  call void @llvm.lifetime.end.p0(i64 8, ptr %30) #8
  %80 = load i32, ptr %31, align 4
  switch i32 %80, label %168 [
    i32 4, label %160
  ]

81:                                               ; preds = %63
  %82 = load ptr, ptr %20, align 8, !tbaa !15
  %83 = icmp ne ptr %82, null
  br i1 %83, label %84, label %113

84:                                               ; preds = %81
  call void @llvm.lifetime.start.p0(i64 8, ptr %32) #8
  call void @llvm.lifetime.start.p0(i64 8, ptr %33) #8
  %85 = load ptr, ptr %16, align 8, !tbaa !11
  %86 = call i64 @BIO_ctrl(ptr noundef %85, i32 noundef 120, i64 noundef 0, ptr noundef %32)
  %87 = load ptr, ptr %32, align 8, !tbaa !23
  %88 = call i32 @EVP_DigestSignFinal(ptr noundef %87, ptr noundef null, ptr noundef %33)
  %89 = icmp ne i32 %88, 0
  br i1 %89, label %93, label %90

90:                                               ; preds = %84
  %91 = load ptr, ptr @bio_err, align 8, !tbaa !11
  %92 = call i32 (ptr, ptr, ...) @BIO_printf(ptr noundef %91, ptr noundef @.str.97)
  store i32 4, ptr %31, align 4
  br label %110

93:                                               ; preds = %84
  %94 = load i64, ptr %33, align 8, !tbaa !49
  %95 = icmp ugt i64 %94, 8192
  br i1 %95, label %96, label %101

96:                                               ; preds = %93
  %97 = load i64, ptr %33, align 8, !tbaa !49
  store i64 %97, ptr %26, align 8, !tbaa !49
  %98 = load i64, ptr %26, align 8, !tbaa !49
  %99 = call ptr @app_malloc(i64 noundef %98, ptr noundef @.str.98)
  store ptr %99, ptr %29, align 8, !tbaa !19
  %100 = load ptr, ptr %29, align 8, !tbaa !19
  store ptr %100, ptr %15, align 8, !tbaa !19
  br label %101

101:                                              ; preds = %96, %93
  %102 = load ptr, ptr %32, align 8, !tbaa !23
  %103 = load ptr, ptr %15, align 8, !tbaa !19
  %104 = call i32 @EVP_DigestSignFinal(ptr noundef %102, ptr noundef %103, ptr noundef %26)
  %105 = icmp ne i32 %104, 0
  br i1 %105, label %109, label %106

106:                                              ; preds = %101
  %107 = load ptr, ptr @bio_err, align 8, !tbaa !11
  %108 = call i32 (ptr, ptr, ...) @BIO_printf(ptr noundef %107, ptr noundef @.str.99)
  store i32 4, ptr %31, align 4
  br label %110

109:                                              ; preds = %101
  store i32 0, ptr %31, align 4
  br label %110

110:                                              ; preds = %106, %90, %109
  call void @llvm.lifetime.end.p0(i64 8, ptr %33) #8
  call void @llvm.lifetime.end.p0(i64 8, ptr %32) #8
  %111 = load i32, ptr %31, align 4
  switch i32 %111, label %168 [
    i32 0, label %112
    i32 4, label %160
  ]

112:                                              ; preds = %110
  br label %151

113:                                              ; preds = %81
  %114 = load i32, ptr %19, align 4, !tbaa !4
  %115 = icmp sgt i32 %114, 0
  br i1 %115, label %116, label %140

116:                                              ; preds = %113
  call void @llvm.lifetime.start.p0(i64 8, ptr %34) #8
  %117 = load i32, ptr %19, align 4, !tbaa !4
  %118 = sext i32 %117 to i64
  store i64 %118, ptr %26, align 8, !tbaa !49
  %119 = load i64, ptr %26, align 8, !tbaa !49
  %120 = icmp ugt i64 %119, 8192
  br i1 %120, label %121, label %125

121:                                              ; preds = %116
  %122 = load i64, ptr %26, align 8, !tbaa !49
  %123 = call ptr @app_malloc(i64 noundef %122, ptr noundef @.str.100)
  store ptr %123, ptr %29, align 8, !tbaa !19
  %124 = load ptr, ptr %29, align 8, !tbaa !19
  store ptr %124, ptr %15, align 8, !tbaa !19
  br label %125

125:                                              ; preds = %121, %116
  %126 = load ptr, ptr %16, align 8, !tbaa !11
  %127 = call i64 @BIO_ctrl(ptr noundef %126, i32 noundef 120, i64 noundef 0, ptr noundef %34)
  %128 = load ptr, ptr %34, align 8, !tbaa !23
  %129 = load ptr, ptr %15, align 8, !tbaa !19
  %130 = load i64, ptr %26, align 8, !tbaa !49
  %131 = call i32 @EVP_DigestFinalXOF(ptr noundef %128, ptr noundef %129, i64 noundef %130)
  %132 = icmp ne i32 %131, 0
  br i1 %132, label %136, label %133

133:                                              ; preds = %125
  %134 = load ptr, ptr @bio_err, align 8, !tbaa !11
  %135 = call i32 (ptr, ptr, ...) @BIO_printf(ptr noundef %134, ptr noundef @.str.101)
  store i32 4, ptr %31, align 4
  br label %137

136:                                              ; preds = %125
  store i32 0, ptr %31, align 4
  br label %137

137:                                              ; preds = %133, %136
  call void @llvm.lifetime.end.p0(i64 8, ptr %34) #8
  %138 = load i32, ptr %31, align 4
  switch i32 %138, label %168 [
    i32 0, label %139
    i32 4, label %160
  ]

139:                                              ; preds = %137
  br label %150

140:                                              ; preds = %113
  %141 = load ptr, ptr %16, align 8, !tbaa !11
  %142 = load ptr, ptr %15, align 8, !tbaa !19
  %143 = call i32 @BIO_gets(ptr noundef %141, ptr noundef %142, i32 noundef 8192)
  %144 = sext i32 %143 to i64
  store i64 %144, ptr %26, align 8, !tbaa !49
  %145 = load i64, ptr %26, align 8, !tbaa !49
  %146 = trunc i64 %145 to i32
  %147 = icmp slt i32 %146, 0
  br i1 %147, label %148, label %149

148:                                              ; preds = %140
  br label %160

149:                                              ; preds = %140
  br label %150

150:                                              ; preds = %149, %139
  br label %151

151:                                              ; preds = %150, %112
  %152 = load ptr, ptr %14, align 8, !tbaa !11
  %153 = load ptr, ptr %15, align 8, !tbaa !19
  %154 = load i64, ptr %26, align 8, !tbaa !49
  %155 = load i32, ptr %17, align 4, !tbaa !4
  %156 = load i32, ptr %18, align 4, !tbaa !4
  %157 = load ptr, ptr %23, align 8, !tbaa !19
  %158 = load ptr, ptr %24, align 8, !tbaa !19
  %159 = load ptr, ptr %25, align 8, !tbaa !19
  call void @print_out(ptr noundef %152, ptr noundef %153, i64 noundef %154, i32 noundef %155, i32 noundef %156, ptr noundef %157, ptr noundef %158, ptr noundef %159)
  store i32 0, ptr %28, align 4, !tbaa !4
  br label %160

160:                                              ; preds = %151, %137, %110, %79, %148, %54
  %161 = load ptr, ptr %29, align 8, !tbaa !19
  %162 = icmp ne ptr %161, null
  br i1 %162, label %163, label %166

163:                                              ; preds = %160
  %164 = load ptr, ptr %29, align 8, !tbaa !19
  %165 = load i64, ptr %26, align 8, !tbaa !49
  call void @CRYPTO_clear_free(ptr noundef %164, i64 noundef %165, ptr noundef @.str.95, i32 noundef 690)
  br label %166

166:                                              ; preds = %163, %160
  %167 = load i32, ptr %28, align 4, !tbaa !4
  store i32 %167, ptr %13, align 4
  store i32 1, ptr %31, align 4
  br label %168

168:                                              ; preds = %166, %79, %137, %110
  call void @llvm.lifetime.end.p0(i64 8, ptr %29) #8
  call void @llvm.lifetime.end.p0(i64 4, ptr %28) #8
  call void @llvm.lifetime.end.p0(i64 4, ptr %27) #8
  call void @llvm.lifetime.end.p0(i64 8, ptr %26) #8
  %169 = load i32, ptr %13, align 4
  ret i32 %169
}