; Function Attrs: nounwind uwtable
define dso_local range(i32 0, 2) i32 @do_fp(ptr noundef %0, ptr noundef %1, ptr noundef %2, i32 noundef %3, i32 noundef %4, i32 noundef %5, ptr noundef readnone captures(address_is_null) %6, ptr noundef %7, i32 noundef %8, ptr noundef %9, ptr noundef %10, ptr noundef %11) local_unnamed_addr #0 {
  %13 = alloca i64, align 8
  %14 = alloca ptr, align 8
  %15 = alloca ptr, align 8
  %16 = alloca i64, align 8
  %17 = alloca ptr, align 8
  call void @llvm.lifetime.start.p0(i64 8, ptr nonnull %13) #8
  store i64 8192, ptr %13, align 8, !tbaa !36
  br label %18

18:                                               ; preds = %29, %12
  %19 = tail call i64 @BIO_ctrl(ptr noundef %2, i32 noundef 10, i64 noundef 0, ptr noundef null) #8
  %20 = and i64 %19, 4294967295
  %.not = icmp eq i64 %20, 0
  br i1 %.not, label %21, label %.critedge

21:                                               ; preds = %18
  %22 = tail call i64 @BIO_ctrl(ptr noundef %2, i32 noundef 2, i64 noundef 0, ptr noundef null) #8
  %23 = and i64 %22, 4294967295
  %.not52 = icmp eq i64 %23, 0
  br i1 %.not52, label %.critedge, label %31

.critedge:                                        ; preds = %18, %21
  %24 = tail call i32 @BIO_read(ptr noundef %2, ptr noundef %1, i32 noundef 8192) #8
  %25 = icmp slt i32 %24, 0
  br i1 %25, label %26, label %29

26:                                               ; preds = %.critedge
  %27 = load ptr, ptr @bio_err, align 8, !tbaa !15
  %28 = tail call i32 (ptr, ptr, ...) @BIO_printf(ptr noundef %27, ptr noundef nonnull @.str.96, ptr noundef %11) #8
  br label %.thread71

29:                                               ; preds = %.critedge
  %30 = icmp eq i32 %24, 0
  br i1 %30, label %31, label %18, !llvm.loop !38

31:                                               ; preds = %29, %21
  %.not53 = icmp eq ptr %7, null
  br i1 %.not53, label %47, label %32

32:                                               ; preds = %31
  call void @llvm.lifetime.start.p0(i64 8, ptr nonnull %14) #8
  %33 = call i64 @BIO_ctrl(ptr noundef %2, i32 noundef 120, i64 noundef 0, ptr noundef nonnull %14) #8
  %34 = load ptr, ptr %14, align 8, !tbaa !23
  %35 = zext i32 %8 to i64
  %36 = call i32 @EVP_DigestVerifyFinal(ptr noundef %34, ptr noundef nonnull %7, i64 noundef %35) #8
  %37 = icmp slt i32 %36, 1
  br i1 %37, label %40, label %38

38:                                               ; preds = %32
  %39 = call i32 (ptr, ptr, ...) @BIO_printf(ptr noundef %0, ptr noundef nonnull @.str.106) #8
  br label %print_verify_result.exit

40:                                               ; preds = %32
  %41 = icmp eq i32 %36, 0
  br i1 %41, label %42, label %44

42:                                               ; preds = %40
  %43 = call i32 (ptr, ptr, ...) @BIO_printf(ptr noundef %0, ptr noundef nonnull @.str.107) #8
  br label %print_verify_result.exit

44:                                               ; preds = %40
  %45 = load ptr, ptr @bio_err, align 8, !tbaa !15
  %46 = call i32 (ptr, ptr, ...) @BIO_printf(ptr noundef %45, ptr noundef nonnull @.str.108) #8
  br label %print_verify_result.exit

print_verify_result.exit:                         ; preds = %38, %42, %44
  %spec.select = zext i1 %37 to i32
  call void @llvm.lifetime.end.p0(i64 8, ptr nonnull %14) #8
  br label %.thread71

47:                                               ; preds = %31
  %.not54 = icmp eq ptr %6, null
  br i1 %.not54, label %63, label %48

48:                                               ; preds = %47
  call void @llvm.lifetime.start.p0(i64 8, ptr nonnull %15) #8
  call void @llvm.lifetime.start.p0(i64 8, ptr nonnull %16) #8
  %49 = call i64 @BIO_ctrl(ptr noundef %2, i32 noundef 120, i64 noundef 0, ptr noundef nonnull %15) #8
  %50 = load ptr, ptr %15, align 8, !tbaa !23
  %51 = call i32 @EVP_DigestSignFinal(ptr noundef %50, ptr noundef null, ptr noundef nonnull %16) #8
  %.not56 = icmp eq i32 %51, 0
  br i1 %.not56, label %.thread, label %52

52:                                               ; preds = %48
  %53 = load i64, ptr %16, align 8, !tbaa !36
  %54 = icmp ugt i64 %53, 8192
  br i1 %54, label %55, label %57

55:                                               ; preds = %52
  store i64 %53, ptr %13, align 8, !tbaa !36
  %56 = call ptr @app_malloc(i64 noundef %53, ptr noundef nonnull @.str.98) #8
  br label %57

57:                                               ; preds = %55, %52
  %.144 = phi ptr [ %56, %55 ], [ %1, %52 ]
  %.2 = phi ptr [ %56, %55 ], [ null, %52 ]
  %58 = load ptr, ptr %15, align 8, !tbaa !23
  %59 = call i32 @EVP_DigestSignFinal(ptr noundef %58, ptr noundef %.144, ptr noundef nonnull %13) #8
  %.not57 = icmp eq i32 %59, 0
  br i1 %.not57, label %.thread, label %62

.thread:                                          ; preds = %57, %48
  %.str.99.sink = phi ptr [ @.str.97, %48 ], [ @.str.99, %57 ]
  %.139.ph = phi ptr [ null, %48 ], [ %.2, %57 ]
  %60 = load ptr, ptr @bio_err, align 8, !tbaa !15
  %61 = call i32 (ptr, ptr, ...) @BIO_printf(ptr noundef %60, ptr noundef nonnull %.str.99.sink) #8
  call void @llvm.lifetime.end.p0(i64 8, ptr nonnull %16) #8
  call void @llvm.lifetime.end.p0(i64 8, ptr nonnull %15) #8
  br label %83

62:                                               ; preds = %57
  call void @llvm.lifetime.end.p0(i64 8, ptr nonnull %16) #8
  call void @llvm.lifetime.end.p0(i64 8, ptr nonnull %15) #8
  %.pre = load i64, ptr %13, align 8, !tbaa !36
  br label %81

63:                                               ; preds = %47
  %64 = icmp sgt i32 %5, 0
  br i1 %64, label %65, label %77

65:                                               ; preds = %63
  call void @llvm.lifetime.start.p0(i64 8, ptr nonnull %17) #8
  %66 = zext nneg i32 %5 to i64
  store i64 %66, ptr %13, align 8, !tbaa !36
  %67 = icmp samesign ugt i32 %5, 8192
  br i1 %67, label %68, label %70

68:                                               ; preds = %65
  %69 = tail call ptr @app_malloc(i64 noundef %66, ptr noundef nonnull @.str.100) #8
  br label %70

70:                                               ; preds = %68, %65
  %.346 = phi ptr [ %69, %68 ], [ %1, %65 ]
  %.4 = phi ptr [ %69, %68 ], [ null, %65 ]
  %71 = call i64 @BIO_ctrl(ptr noundef %2, i32 noundef 120, i64 noundef 0, ptr noundef nonnull %17) #8
  %72 = load ptr, ptr %17, align 8, !tbaa !23
  %73 = call i32 @EVP_DigestFinalXOF(ptr noundef %72, ptr noundef %.346, i64 noundef %66) #8
  %.not55 = icmp eq i32 %73, 0
  br i1 %.not55, label %74, label %.thread67

.thread67:                                        ; preds = %70
  call void @llvm.lifetime.end.p0(i64 8, ptr nonnull %17) #8
  br label %81

74:                                               ; preds = %70
  %75 = load ptr, ptr @bio_err, align 8, !tbaa !15
  %76 = call i32 (ptr, ptr, ...) @BIO_printf(ptr noundef %75, ptr noundef nonnull @.str.101) #8
  call void @llvm.lifetime.end.p0(i64 8, ptr nonnull %17) #8
  br label %83

77:                                               ; preds = %63
  %78 = tail call i32 @BIO_gets(ptr noundef %2, ptr noundef %1, i32 noundef 8192) #8
  %79 = sext i32 %78 to i64
  store i64 %79, ptr %13, align 8, !tbaa !36
  %80 = icmp slt i32 %78, 0
  br i1 %80, label %.thread71, label %81

81:                                               ; preds = %.thread67, %62, %77
  %82 = phi i64 [ %.pre, %62 ], [ %79, %77 ], [ %66, %.thread67 ]
  %.245 = phi ptr [ %.144, %62 ], [ %1, %77 ], [ %.346, %.thread67 ]
  %.3 = phi ptr [ %.2, %62 ], [ null, %77 ], [ %.4, %.thread67 ]
  call fastcc void @print_out(ptr noundef %0, ptr noundef %.245, i64 noundef %82, i32 noundef %3, i32 noundef %4, ptr noundef %9, ptr noundef %10, ptr noundef %11)
  br label %83

83:                                               ; preds = %74, %.thread, %81
  %.040 = phi i32 [ 0, %81 ], [ 1, %74 ], [ 1, %.thread ]
  %.038 = phi ptr [ %.3, %81 ], [ %.4, %74 ], [ %.139.ph, %.thread ]
  %.not58 = icmp eq ptr %.038, null
  br i1 %.not58, label %.thread71, label %84

84:                                               ; preds = %83
  %85 = load i64, ptr %13, align 8, !tbaa !36
  call void @CRYPTO_clear_free(ptr noundef nonnull %.038, i64 noundef %85, ptr noundef nonnull @.str.95, i32 noundef 690) #8
  br label %.thread71

.thread71:                                        ; preds = %77, %print_verify_result.exit, %26, %83, %84
  %.04075 = phi i32 [ %.040, %83 ], [ %.040, %84 ], [ 1, %77 ], [ %spec.select, %print_verify_result.exit ], [ 1, %26 ]
  call void @llvm.lifetime.end.p0(i64 8, ptr nonnull %13) #8
  ret i32 %.04075
}